target datalayout = "e-m:e-p270:32:32-p271:32:32-p272:64:64-i64:64-i128:128-f80:128-n8:16:32:64-S128"
target triple = "x86_64-pc-linux-gnu"

@.str.5 = private unnamed_addr constant [16 x i8] c"posix_spawn %s\0A\00", align 1
@.str.6 = private unnamed_addr constant [12 x i8] c"posix_spawn\00", align 1
@stderr = external global ptr, align 8
@.str.15 = private unnamed_addr constant [10 x i8] c"MOLD_PATH\00", align 1
@.str.16 = private unnamed_addr constant [22 x i8] c"MOLD_PATH is not set\0A\00", align 1

; Function Attrs: nounwind uwtable
define internal ptr @get_mold_path() #0 {
  %1 = alloca ptr, align 8
  call void @llvm.lifetime.start.p0(i64 8, ptr %1) #8
  %2 = call ptr @getenv(ptr noundef @.str.15) #8
  store ptr %2, ptr %1, align 8, !tbaa !3
  %3 = load ptr, ptr %1, align 8, !tbaa !3
  %4 = icmp ne ptr %3, null
  br i1 %4, label %5, label %7

5:                                                ; preds = %0
  %6 = load ptr, ptr %1, align 8, !tbaa !3
  call void @llvm.lifetime.end.p0(i64 8, ptr %1) #8
  ret ptr %6

7:                                                ; preds = %0
  %8 = load ptr, ptr @stderr, align 8, !tbaa !16
  %9 = call i32 (ptr, ptr, ...) @fprintf(ptr noundef %8, ptr noundef @.str.16) #8
  call void @exit(i32 noundef 1) #9
  unreachable
}

; Function Attrs: nounwind uwtable
define i32 @posix_spawn(ptr noundef %0, ptr noundef nonnull %1, ptr noundef %2, ptr noundef %3, ptr noundef nonnull %4, ptr noundef %5) #0 {
  %7 = alloca ptr, align 8
  %8 = alloca ptr, align 8
  %9 = alloca ptr, align 8
  %10 = alloca ptr, align 8
  %11 = alloca ptr, align 8
  %12 = alloca ptr, align 8
  %13 = alloca ptr, align 8
  store ptr %0, ptr %7, align 8, !tbaa !24
  store ptr %1, ptr %8, align 8, !tbaa !3
  store ptr %2, ptr %9, align 8, !tbaa !15
  store ptr %3, ptr %10, align 8, !tbaa !15
  store ptr %4, ptr %11, align 8, !tbaa !8
  store ptr %5, ptr %12, align 8, !tbaa !8
  %14 = load ptr, ptr %8, align 8, !tbaa !3
  call void (ptr, ...) @debug_print(ptr noundef @.str.5, ptr noundef %14)
  %15 = load ptr, ptr %8, align 8, !tbaa !3
  %16 = call zeroext i1 @is_ld(ptr noundef %15)
  br i1 %16, label %17, label %19

17:                                               ; preds = %6
  %18 = call ptr @get_mold_path()
  store ptr %18, ptr %8, align 8, !tbaa !3
  br label %19

19:                                               ; preds = %17, %6
  call void @llvm.lifetime.start.p0(i64 8, ptr %13) #8
  %20 = call ptr @dlsym(ptr noundef inttoptr (i64 -1 to ptr), ptr noundef @.str.6) #8
  store ptr %20, ptr %13, align 8, !tbaa !15
  %21 = load ptr, ptr %13, align 8, !tbaa !15
  %22 = load ptr, ptr %7, align 8, !tbaa !24
  %23 = load ptr, ptr %8, align 8, !tbaa !3
  %24 = load ptr, ptr %9, align 8, !tbaa !15
  %25 = load ptr, ptr %10, align 8, !tbaa !15
  %26 = load ptr, ptr %11, align 8, !tbaa !8
  %27 = load ptr, ptr %12, align 8, !tbaa !8
  %28 = call i32 %21(ptr noundef %22, ptr noundef %23, ptr noundef %24, ptr noundef %25, ptr noundef %26, ptr noundef %27)
  call void @llvm.lifetime.end.p0(i64 8, ptr %13) #8
  ret i32 %28
}